Certificate:
    Data:
        Version: 3 (0x2)
        Serial Number: 7 (0x7)
        Signature Algorithm: md5WithRSAEncryption
        Issuer: C=US, ST=OR, L=CORVALLIS, O=AGI, CN=kilchis/emailAddress=bwilson@alseageo.com
        Validity
            Not Before: Jul 23 20:53:24 2008 GMT
            Not After : Jul 21 20:53:24 2018 GMT
        Subject: C=US, ST=OR, O=AGI, CN=bwilson/emailAddress=bwilson@alseageo.com
        Subject Public Key Info:
            Public Key Algorithm: rsaEncryption
            RSA Public Key: (1024 bit)
                Modulus (1024 bit):
                    00:ab:35:55:ec:bf:de:0e:3f:38:3f:6d:64:aa:5d:
                    20:24:be:cc:c5:bb:db:0a:cf:a7:56:58:e7:d2:1b:
                    03:9f:4f:88:3a:4e:71:10:c0:2a:43:24:50:6a:ec:
                    80:49:3b:55:47:01:d2:00:9c:1f:8e:40:01:cd:b8:
                    86:7d:ff:38:0e:58:1a:24:75:ab:fe:f3:da:8e:d8:
                    dc:2a:a0:03:3d:db:70:c6:9d:2e:63:56:3a:78:90:
                    4e:c7:f4:ac:0b:ba:cd:8a:1f:63:ee:a0:b5:26:60:
                    1d:8b:28:0f:6d:de:fe:91:e4:e8:ff:4f:59:0b:a1:
                    5d:dd:e7:bc:ef:8f:64:3d:0d
                Exponent: 65537 (0x10001)
        X509v3 extensions:
            X509v3 Basic Constraints: 
                CA:FALSE
            Netscape Comment: 
                OpenSSL Generated Certificate
            X509v3 Subject Key Identifier: 
                77:74:09:EC:E8:4E:05:2A:E8:FF:8A:20:FB:8D:A1:8D:31:CF:05:47
            X509v3 Authority Key Identifier: 
                keyid:9C:2C:C9:F1:3A:42:1E:C6:F7:ED:80:E6:25:EF:2A:11:CB:F2:6F:0D
                DirName:/C=US/ST=OR/L=CORVALLIS/O=AGI/CN=kilchis/emailAddress=bwilson@alseageo.com
                serial:C1:73:5D:FA:F3:89:A5:58

    Signature Algorithm: md5WithRSAEncryption
        bc:9f:93:b5:e3:6d:b9:4b:74:7e:ac:66:6c:cb:c7:b1:b0:cb:
        7c:29:f1:2a:7c:1b:c4:c8:23:50:3e:5c:0b:2c:39:7c:cd:f6:
        f1:fe:0b:60:cd:65:3c:13:9f:4b:d0:8b:b5:0c:4d:6f:68:4d:
        58:27:d3:ba:a3:06:93:27:b9:bd:28:bb:e2:d1:7f:48:8c:70:
        46:43:26:66:34:7c:3f:6f:15:30:aa:76:5f:6c:7a:bf:ed:eb:
        24:3e:fa:4f:d7:e0:78:9e:d7:dc:82:94:0e:b1:14:16:0c:ef:
        1e:d5:fc:7f:aa:ba:30:23:e3:f8:fd:83:85:85:1d:d6:75:99:
        43:c3
-----BEGIN CERTIFICATE-----
MIIDTjCCAregAwIBAgIBBzANBgkqhkiG9w0BAQQFADBzMQswCQYDVQQGEwJVUzEL
MAkGA1UECBMCT1IxEjAQBgNVBAcTCUNPUlZBTExJUzEMMAoGA1UEChMDQUdJMRAw
DgYDVQQDEwdraWxjaGlzMSMwIQYJKoZIhvcNAQkBFhRid2lsc29uQGFsc2VhZ2Vv
LmNvbTAeFw0wODA3MjMyMDUzMjRaFw0xODA3MjEyMDUzMjRaMF8xCzAJBgNVBAYT
AlVTMQswCQYDVQQIEwJPUjEMMAoGA1UEChMDQUdJMRAwDgYDVQQDEwdid2lsc29u
MSMwIQYJKoZIhvcNAQkBFhRid2lsc29uQGFsc2VhZ2VvLmNvbTCBnzANBgkqhkiG
9w0BAQEFAAOBjQAwgYkCgYEAqzVV7L/eDj84P21kql0gJL7MxbvbCs+nVljn0hsD
n0+IOk5xEMAqQyRQauyASTtVRwHSAJwfjkABzbiGff84DlgaJHWr/vPajtjcKqAD
Pdtwxp0uY1Y6eJBOx/SsC7rNih9j7qC1JmAdiygPbd7+keTo/09ZC6Fd3ee8749k
PQ0CAwEAAaOCAQQwggEAMAkGA1UdEwQCMAAwLAYJYIZIAYb4QgENBB8WHU9wZW5T
U0wgR2VuZXJhdGVkIENlcnRpZmljYXRlMB0GA1UdDgQWBBR3dAns6E4FKuj/iiD7
jaGNMc8FRzCBpQYDVR0jBIGdMIGagBScLMnxOkIexvftgOYl7yoRy/JvDaF3pHUw
czELMAkGA1UEBhMCVVMxCzAJBgNVBAgTAk9SMRIwEAYDVQQHEwlDT1JWQUxMSVMx
DDAKBgNVBAoTA0FHSTEQMA4GA1UEAxMHa2lsY2hpczEjMCEGCSqGSIb3DQEJARYU
YndpbHNvbkBhbHNlYWdlby5jb22CCQDBc13684mlWDANBgkqhkiG9w0BAQQFAAOB
gQC8n5O14225S3R+rGZsy8exsMt8KfEqfBvEyCNQPlwLLDl8zfbx/gtgzWU8E59L
0Iu1DE1vaE1YJ9O6owaTJ7m9KLvi0X9IjHBGQyZmNHw/bxUwqnZfbHq/7eskPvpP
1+B4ntfcgpQOsRQWDO8e1fx/qrowI+P4/YOFhR3WdZlDww==
-----END CERTIFICATE-----
